BL51 BANKED LINKER/LOCATER V6.22.4.0                                                    01/21/2025  15:14:53  PAGE 1


BL51 BANKED LINKER/LOCATER V6.22.4.0, INVOKED BY:
C:\KEIL_V5\C51\BIN\BL51.EXE .\Objects\main.obj, .\Objects\ds18b20.obj, .\Objects\iic.obj, .\Objects\at24c02.obj, .\Objec
>> ts\STARTUP.obj, .\Objects\ds1302.obj, .\Objects\pcf8591.obj TO .\Objects\test_u2 PRINT (.\Listings\test_u2.m51) RAMSI
>> ZE (256)


MEMORY MODEL: COMPACT WITH FLOATING POINT ARITHMETIC


INPUT MODULES INCLUDED:
  .\Objects\main.obj (MAIN)
  .\Objects\ds18b20.obj (DS18B20)
  .\Objects\iic.obj (IIC)
  .\Objects\at24c02.obj (AT24C02)
  .\Objects\STARTUP.obj (?C_STARTUP)
  .\Objects\ds1302.obj (DS1302)
  .\Objects\pcf8591.obj (PCF8591)
  C:\KEIL_V5\C51\LIB\C51FPC.LIB (?C?FPMUL)
  C:\KEIL_V5\C51\LIB\C51FPC.LIB (?C?FCAST)
  C:\KEIL_V5\C51\LIB\C51FPC.LIB (?C?FPGETOPN)
  C:\KEIL_V5\C51\LIB\C51C.LIB (?C_INIT)
  C:\KEIL_V5\C51\LIB\C51C.LIB (?C?CLDPTR)
  C:\KEIL_V5\C51\LIB\C51C.LIB (?C?CLDOPTR)
  C:\KEIL_V5\C51\LIB\C51C.LIB (?C?CSTOPTR)
  C:\KEIL_V5\C51\LIB\C51C.LIB (?C?ILDOPTR)
  C:\KEIL_V5\C51\LIB\C51C.LIB (?C?LNEG)
  C:\KEIL_V5\C51\LIB\C51C.LIB (?C?ICALL)


LINK MAP OF MODULE:  .\Objects\test_u2 (MAIN)


            TYPE    BASE      LENGTH    RELOCATION   SEGMENT NAME
            -----------------------------------------------------

            * * * * * * *   D A T A   M E M O R Y   * * * * * * *
            REG     0000H     0008H     ABSOLUTE     "REG BANK 0"
            DATA    0008H     0002H     UNIT         ?DT?DELAY10MS?PCF8591
            DATA    000AH     0001H     UNIT         _DATA_GROUP_
                    000BH     0015H                  *** GAP ***
            BIT     0020H.0   0000H.1   UNIT         _BIT_GROUP_
                    0020H.1   0000H.7                *** GAP ***
            IDATA   0021H     0001H     UNIT         ?STACK

            * * * * * * *  X D A T A   M E M O R Y  * * * * * * *
            XDATA   0000H     004FH     INPAGE       ?PD?MAIN
            XDATA   004FH     0008H     INPAGE       ?PD?DS18B20
            XDATA   0057H     0010H     INPAGE       ?PD?DS1302
            XDATA   0067H     0009H     INPAGE       _PDATA_GROUP_

            * * * * * * *   C O D E   M E M O R Y   * * * * * * *
            CODE    0000H     0003H     ABSOLUTE     
            CODE    0003H     0242H     UNIT         ?C?LIB_CODE
            CODE    0245H     008CH     UNIT         ?C_C51STARTUP
            CODE    02D1H     007AH     UNIT         ?PR?_PCF8591_ADC?MAIN
            CODE    034BH     006CH     UNIT         ?PR?_SEG_DISPALY?MAIN
            CODE    03B7H     0067H     UNIT         ?PR?DISPLAY_DS1302?MAIN
            CODE    041EH     0066H     UNIT         ?PR?_PCF8591_DAC?MAIN
BL51 BANKED LINKER/LOCATER V6.22.4.0                                                  01/21/2025  15:14:53  PAGE 2


            CODE    0484H     005CH     UNIT         ?PR?_DISPLAY_WAKETIMES?MAIN
            CODE    04E0H     0050H     UNIT         ?PR?ROM_CODE_C?MAIN
            CODE    0530H     0050H     UNIT         ?C_INITSEG
            CODE    0580H     004FH     UNIT         ?PR?READRTC?DS1302
            CODE    05CFH     004CH     UNIT         ?PR?KEYBOART_CHECK?MAIN
            CODE    061BH     0047H     UNIT         ?PR?MAIN?MAIN
            CODE    0662H     0044H     UNIT         ?PR?_READ_AT24C02?AT24C02
            CODE    06A6H     0040H     UNIT         ?PR?GETTEMPERATURE?DS18B20
            CODE    06E6H     003BH     UNIT         ?PR?_READROMCODE?DS18B20
            CODE    0721H     003AH     UNIT         ?PR?_GETADC?PCF8591
            CODE    075BH     0037H     UNIT         ?PR?_READ_DS1302?DS1302
            CODE    0792H     0035H     UNIT         ?PR?SEG_SERIAL?MAIN
            CODE    07C7H     0034H     UNIT         ?PR?_TASK?MAIN
            CODE    07FBH     0033H     UNIT         ?PR?_I2C_RECEIVEDATA?IIC
            CODE    082EH     0032H     UNIT         ?PR?_WRITE_AT24C02?AT24C02
            CODE    0860H     002EH     UNIT         ?PR?_UART_SEND_DATA?MAIN
            CODE    088EH     002CH     UNIT         ?PR?AT24C02_INIT?MAIN
            CODE    08BAH     002BH     UNIT         ?PR?I2C_READ_BYTE?IIC
            CODE    08E5H     0028H     UNIT         ?PR?INITRTCSTRUCT?DS1302
            CODE    090DH     0027H     UNIT         ?PR?INITDS18B20?DS18B20
            CODE    0934H     0026H     UNIT         ?PR?_I2C_TRANSMITDATA?IIC
            CODE    095AH     0024H     UNIT         ?PR?_I2C_SEND_BYTE?IIC
            CODE    097EH     0024H     UNIT         ?PR?_SETDAC?PCF8591
            CODE    09A2H     0023H     UNIT         ?PR?SETRTC?DS1302
            CODE    09C5H     0021H     UNIT         ?PR?_WRITE_DS1302?DS1302
            CODE    09E6H     001FH     UNIT         ?PR?_WRITE_DS18B20?DS18B20
            CODE    0A05H     001BH     UNIT         ?PR?_DELAY_MS?MAIN
            CODE    0A20H     001BH     UNIT         ?PR?READ_DS18B20?DS18B20
            CODE    0A3BH     001AH     UNIT         ?PR?_ONEWIREDELAY?DS18B20
            CODE    0A55H     001AH     UNIT         ?PR?TEST_ACK?IIC
            CODE    0A6FH     0019H     UNIT         ?PR?MASTER_ACK?IIC
            CODE    0A88H     0017H     UNIT         ?PR?UART_INIT?MAIN
            CODE    0A9FH     0016H     UNIT         ?PR?INITPCF8591?PCF8591
            CODE    0AB5H     0014H     UNIT         ?PR?_WRITE_DS1302_BYTE?DS1302
            CODE    0AC9H     000EH     UNIT         ?CO?DS1302
            CODE    0AD7H     000DH     UNIT         ?PR?I2C_START?IIC
            CODE    0AE4H     000DH     UNIT         ?PR?I2C_STOP?IIC
            CODE    0AF1H     000DH     UNIT         ?PR?DELAY10MS?PCF8591
            CODE    0AFEH     0008H     UNIT         ?PR?DELAY_5US?IIC
            CODE    0B06H     0007H     UNIT         ?PR?I2C_INIT?IIC
            CODE    0B0DH     0007H     UNIT         ?PR?GETRTCSTRUCT?DS1302



OVERLAY MAP OF MODULE:   .\Objects\test_u2 (MAIN)


SEGMENT                                  BIT_GROUP          DATA_GROUP          PDATA_GROUP
  +--> CALLED SEGMENT                 START    LENGTH     START    LENGTH     START    LENGTH
---------------------------------------------------------------------------------------------
?C_C51STARTUP                         -----    -----      -----    -----      -----    -----
  +--> ?PR?MAIN?MAIN
  +--> ?C_INITSEG

?PR?MAIN?MAIN                         -----    -----      -----    -----      0067H    0001H
  +--> ?PR?UART_INIT?MAIN
  +--> ?PR?AT24C02_INIT?MAIN
BL51 BANKED LINKER/LOCATER V6.22.4.0                                                  01/21/2025  15:14:53  PAGE 3


  +--> ?PR?_READROMCODE?DS18B20
  +--> ?PR?ROM_CODE_C?MAIN
  +--> ?PR?_UART_SEND_DATA?MAIN
  +--> ?PR?SEG_SERIAL?MAIN
  +--> ?PR?INITRTCSTRUCT?DS1302
  +--> ?PR?GETRTCSTRUCT?DS1302
  +--> ?PR?INITPCF8591?PCF8591
  +--> ?PR?KEYBOART_CHECK?MAIN
  +--> ?PR?_TASK?MAIN

?PR?AT24C02_INIT?MAIN                 -----    -----      -----    -----      0068H    0001H
  +--> ?PR?_READ_AT24C02?AT24C02
  +--> ?PR?_DELAY_MS?MAIN
  +--> ?PR?_WRITE_AT24C02?AT24C02

?PR?_READ_AT24C02?AT24C02             -----    -----      -----    -----      0069H    0002H
  +--> ?PR?I2C_START?IIC
  +--> ?PR?_I2C_SEND_BYTE?IIC
  +--> ?PR?TEST_ACK?IIC
  +--> ?PR?MASTER_ACK?IIC
  +--> ?PR?I2C_READ_BYTE?IIC
  +--> ?PR?I2C_STOP?IIC

?PR?I2C_START?IIC                     -----    -----      -----    -----      -----    -----
  +--> ?PR?DELAY_5US?IIC

?PR?DELAY_5US?IIC                     -----    -----      000AH    0001H      -----    -----

?PR?TEST_ACK?IIC                      -----    -----      -----    -----      -----    -----
  +--> ?PR?_I2C_SEND_BYTE?IIC
  +--> ?PR?DELAY_5US?IIC
  +--> ?PR?I2C_STOP?IIC

?PR?I2C_STOP?IIC                      -----    -----      -----    -----      -----    -----
  +--> ?PR?DELAY_5US?IIC

?PR?MASTER_ACK?IIC                    0020H.0  0000H.1    -----    -----      -----    -----
  +--> ?PR?DELAY_5US?IIC

?PR?_WRITE_AT24C02?AT24C02            -----    -----      -----    -----      0069H    0002H
  +--> ?PR?I2C_START?IIC
  +--> ?PR?_I2C_SEND_BYTE?IIC
  +--> ?PR?TEST_ACK?IIC
  +--> ?PR?I2C_STOP?IIC

?PR?_READROMCODE?DS18B20              -----    -----      -----    -----      0068H    0004H
  +--> ?PR?INITDS18B20?DS18B20
  +--> ?PR?_WRITE_DS18B20?DS18B20
  +--> ?PR?READ_DS18B20?DS18B20

?PR?INITDS18B20?DS18B20               0020H.0  0000H.1    -----    -----      -----    -----
  +--> ?PR?_ONEWIREDELAY?DS18B20

?PR?_WRITE_DS18B20?DS18B20            -----    -----      -----    -----      -----    -----
  +--> ?PR?_ONEWIREDELAY?DS18B20

?PR?READ_DS18B20?DS18B20              -----    -----      -----    -----      -----    -----
BL51 BANKED LINKER/LOCATER V6.22.4.0                                                  01/21/2025  15:14:53  PAGE 4


  +--> ?PR?_ONEWIREDELAY?DS18B20

?PR?_UART_SEND_DATA?MAIN              -----    -----      -----    -----      0068H    0003H

?PR?SEG_SERIAL?MAIN                   -----    -----      -----    -----      -----    -----
  +--> ?PR?_DELAY_MS?MAIN

?PR?INITRTCSTRUCT?DS1302              -----    -----      -----    -----      -----    -----
  +--> ?PR?READRTC?DS1302
  +--> ?PR?SETRTC?DS1302

?PR?READRTC?DS1302                    -----    -----      -----    -----      0068H    0003H
  +--> ?CO?DS1302
  +--> ?PR?_READ_DS1302?DS1302

?PR?_READ_DS1302?DS1302               -----    -----      -----    -----      -----    -----
  +--> ?PR?_WRITE_DS1302_BYTE?DS1302

?PR?SETRTC?DS1302                     -----    -----      -----    -----      -----    -----
  +--> ?PR?_WRITE_DS1302?DS1302
  +--> ?CO?DS1302

?PR?_WRITE_DS1302?DS1302              -----    -----      -----    -----      -----    -----
  +--> ?PR?_WRITE_DS1302_BYTE?DS1302

?PR?INITPCF8591?PCF8591               -----    -----      -----    -----      -----    -----
  +--> ?PR?I2C_START?IIC
  +--> ?PR?_I2C_SEND_BYTE?IIC
  +--> ?PR?TEST_ACK?IIC
  +--> ?PR?I2C_STOP?IIC

?PR?_TASK?MAIN                        -----    -----      -----    -----      0068H    0001H
  +--> ?PR?_DISPLAY_WAKETIMES?MAIN
  +--> ?PR?DISPLAY_DS1302?MAIN
  +--> ?PR?_PCF8591_DAC?MAIN
  +--> ?PR?_PCF8591_ADC?MAIN

?PR?_DISPLAY_WAKETIMES?MAIN           -----    -----      -----    -----      -----    -----
  +--> ?PR?_SEG_DISPALY?MAIN

?PR?_SEG_DISPALY?MAIN                 -----    -----      -----    -----      006BH    0005H
  +--> ?PR?_DELAY_MS?MAIN

?PR?DISPLAY_DS1302?MAIN               -----    -----      -----    -----      -----    -----
  +--> ?PR?GETRTCSTRUCT?DS1302
  +--> ?PR?_SEG_DISPALY?MAIN

?PR?_PCF8591_DAC?MAIN                 -----    -----      -----    -----      0069H    0001H
  +--> ?PR?_SETDAC?PCF8591
  +--> ?PR?_SEG_DISPALY?MAIN

?PR?_SETDAC?PCF8591                   -----    -----      -----    -----      006AH    0001H
  +--> ?PR?I2C_START?IIC
  +--> ?PR?_I2C_SEND_BYTE?IIC
  +--> ?PR?TEST_ACK?IIC
  +--> ?PR?I2C_STOP?IIC

BL51 BANKED LINKER/LOCATER V6.22.4.0                                                  01/21/2025  15:14:53  PAGE 5


?PR?_PCF8591_ADC?MAIN                 -----    -----      -----    -----      0069H    0002H
  +--> ?PR?_SEG_DISPALY?MAIN
  +--> ?PR?_GETADC?PCF8591

?PR?_GETADC?PCF8591                   -----    -----      -----    -----      006BH    0002H
  +--> ?PR?I2C_START?IIC
  +--> ?PR?_I2C_SEND_BYTE?IIC
  +--> ?PR?TEST_ACK?IIC
  +--> ?PR?I2C_READ_BYTE?IIC
  +--> ?PR?MASTER_ACK?IIC
  +--> ?PR?I2C_STOP?IIC



SYMBOL TABLE OF MODULE:  .\Objects\test_u2 (MAIN)

  VALUE           TYPE          NAME
  ----------------------------------

  -------         MODULE        MAIN
  C:0000H         SYMBOL        _ICE_DUMMY_
  D:0080H         PUBLIC        P0
  D:0090H         PUBLIC        P1
  D:00A0H         PUBLIC        P2
  D:00B0H         PUBLIC        P3
  B:0090H.0       PUBLIC        S1
  D:00C0H         PUBLIC        P4
  B:0090H.1       PUBLIC        S2
  D:00C8H         PUBLIC        P5
  B:0090H.2       PUBLIC        S3
  B:0090H.3       PUBLIC        S4
  D:00A8H         PUBLIC        IE
  C:04E0H         PUBLIC        rom_code_c
  X:0000H         PUBLIC        printf_data
  D:00B8H         PUBLIC        IP
  C:088EH         PUBLIC        at24c02_init
  C:034BH         PUBLIC        _seg_dispaly
  C:02D1H         PUBLIC        _pcf8591_adc
  C:041EH         PUBLIC        _pcf8591_dac
  B:0098H.1       PUBLIC        TI
  D:00D8H         PUBLIC        CCON
  C:0792H         PUBLIC        seg_serial
  X:0021H         PUBLIC        adc_data
  C:061BH         PUBLIC        main
  C:0484H         PUBLIC        _display_waketimes
  X:0022H         PUBLIC        seg_number
  X:0033H         PUBLIC        wake_times
  D:0099H         PUBLIC        SBUF
  D:0087H         PUBLIC        PCON
  B:00A0H.0       PUBLIC        P20
  D:0098H         PUBLIC        SCON
  C:07C7H         PUBLIC        _task
  B:00A0H.3       PUBLIC        P23
  D:0089H         PUBLIC        TMOD
  D:0088H         PUBLIC        TCON
  X:0034H         PUBLIC        seg_data
  C:05CFH         PUBLIC        keyboart_check
BL51 BANKED LINKER/LOCATER V6.22.4.0                                                  01/21/2025  15:14:53  PAGE 6


  C:0860H         PUBLIC        _uart_send_data
  B:00A8H.3       PUBLIC        ET1
  X:003CH         PUBLIC        rom_data
  D:008DH         PUBLIC        TH1
  D:008BH         PUBLIC        TL1
  C:0A05H         PUBLIC        _delay_ms
  X:0044H         PUBLIC        key_status
  C:0A88H         PUBLIC        uart_init
  B:0088H.6       PUBLIC        TR1
  X:0045H         PUBLIC        seg_com
  X:004EH         PUBLIC        key_status_old
  C:03B7H         PUBLIC        display_ds1302
  D:00D0H         PUBLIC        PSW
  -------         PROC          MAIN
  -------         DO            
  X:0067H         SYMBOL        i
  -------         ENDDO         
  C:061BH         LINE#         57
  C:061BH         LINE#         58
  C:061BH         LINE#         61
  C:061EH         LINE#         64
  C:0625H         LINE#         67
  C:062EH         LINE#         68
  C:0631H         LINE#         69
  C:063CH         LINE#         72
  C:063FH         LINE#         75
  C:0642H         LINE#         76
  C:0651H         LINE#         79
  C:0654H         LINE#         81
  C:0654H         LINE#         82
  C:0654H         LINE#         83
  C:0657H         LINE#         84
  C:0660H         LINE#         94
  -------         ENDPROC       MAIN
  -------         PROC          UART_INIT
  C:0A88H         LINE#         97
  C:0A88H         LINE#         98
  C:0A88H         LINE#         99
  C:0A8BH         LINE#         100
  C:0A8EH         LINE#         101
  C:0A91H         LINE#         102
  C:0A94H         LINE#         103
  C:0A97H         LINE#         104
  C:0A9AH         LINE#         105
  C:0A9CH         LINE#         106
  C:0A9EH         LINE#         107
  -------         ENDPROC       UART_INIT
  -------         PROC          _UART_SEND_DATA
  X:0068H         SYMBOL        tdata
  D:0005H         SYMBOL        length
  -------         DO            
  D:0007H         SYMBOL        i
  -------         ENDDO         
  C:0860H         LINE#         109
  C:086AH         LINE#         110
  C:086AH         LINE#         112
  C:0871H         LINE#         113
BL51 BANKED LINKER/LOCATER V6.22.4.0                                                  01/21/2025  15:14:53  PAGE 7


  C:0871H         LINE#         114
  C:0885H         LINE#         115
  C:0888H         LINE#         116
  C:088AH         LINE#         117
  C:088DH         LINE#         118
  -------         ENDPROC       _UART_SEND_DATA
  -------         PROC          ROM_CODE_C
  -------         DO            
  D:0007H         SYMBOL        index
  -------         ENDDO         
  C:04E0H         LINE#         120
  C:04E0H         LINE#         121
  C:04E0H         LINE#         122
  C:04E2H         LINE#         123
  C:04E2H         LINE#         124
  C:04E2H         LINE#         125
  C:0509H         LINE#         126
  C:052AH         LINE#         127
  C:052FH         LINE#         128
  -------         ENDPROC       ROM_CODE_C
  -------         PROC          _DELAY_MS
  D:0006H         SYMBOL        times
  -------         DO            
  D:0001H         SYMBOL        i
  D:0003H         SYMBOL        j
  D:0004H         SYMBOL        k
  -------         ENDDO         
  C:0A05H         LINE#         130
  C:0A05H         LINE#         131
  C:0A05H         LINE#         134
  C:0A0FH         LINE#         135
  C:0A0FH         LINE#         136
  C:0A10H         LINE#         137
  C:0A12H         LINE#         138
  C:0A14H         LINE#         140
  C:0A14H         LINE#         141
  C:0A16H         LINE#         142
  C:0A18H         LINE#         143
  C:0A1FH         LINE#         144
  -------         ENDPROC       _DELAY_MS
  -------         PROC          _SEG_DISPALY
  X:006BH         SYMBOL        tdata
  X:006EH         SYMBOL        com_control
  -------         DO            
  X:006FH         SYMBOL        i
  -------         ENDDO         
  C:034BH         LINE#         154
  C:0358H         LINE#         155
  C:0358H         LINE#         158
  C:0364H         LINE#         159
  C:0364H         LINE#         160
  C:0367H         LINE#         161
  C:0369H         LINE#         162
  C:037DH         LINE#         163
  C:037DH         LINE#         164
  C:0383H         LINE#         165
  C:0385H         LINE#         167
BL51 BANKED LINKER/LOCATER V6.22.4.0                                                  01/21/2025  15:14:53  PAGE 8


  C:0385H         LINE#         168
  C:038BH         LINE#         169
  C:038BH         LINE#         170
  C:038DH         LINE#         171
  C:03A8H         LINE#         172
  C:03AFH         LINE#         173
  C:03B6H         LINE#         175
  -------         ENDPROC       _SEG_DISPALY
  -------         PROC          SEG_SERIAL
  -------         DO            
  D:0002H         SYMBOL        i
  -------         ENDDO         
  C:0792H         LINE#         177
  C:0792H         LINE#         178
  C:0792H         LINE#         180
  C:0794H         LINE#         181
  C:0797H         LINE#         182
  C:0799H         LINE#         183
  C:079AH         LINE#         184
  C:079AH         LINE#         185
  C:07A1H         LINE#         186
  C:07A3H         LINE#         187
  C:07A6H         LINE#         188
  C:07ADH         LINE#         189
  C:07B2H         LINE#         190
  C:07B7H         LINE#         191
  C:07B9H         LINE#         192
  C:07BCH         LINE#         193
  C:07C1H         LINE#         194
  C:07C3H         LINE#         195
  C:07C6H         LINE#         196
  -------         ENDPROC       SEG_SERIAL
  -------         PROC          AT24C02_INIT
  -------         DO            
  X:0068H         SYMBOL        times
  -------         ENDDO         
  C:088EH         LINE#         198
  C:088EH         LINE#         199
  C:088EH         LINE#         202
  C:0897H         LINE#         203
  C:089EH         LINE#         204
  C:08A4H         LINE#         205
  C:08A4H         LINE#         206
  C:08A7H         LINE#         207
  C:08A8H         LINE#         208
  C:08AAH         LINE#         210
  C:08AAH         LINE#         211
  C:08AFH         LINE#         212
  C:08B5H         LINE#         214
  C:08B5H         LINE#         215
  C:08B9H         LINE#         217
  -------         ENDPROC       AT24C02_INIT
  -------         PROC          _DISPLAY_WAKETIMES
  D:0007H         SYMBOL        wake_times
  C:0484H         LINE#         219
  C:0484H         LINE#         220
  C:0484H         LINE#         221
BL51 BANKED LINKER/LOCATER V6.22.4.0                                                  01/21/2025  15:14:53  PAGE 9


  C:048CH         LINE#         222
  C:049AH         LINE#         223
  C:04A3H         LINE#         224
  C:04B5H         LINE#         225
  C:04CBH         LINE#         226
  C:04DFH         LINE#         227
  -------         ENDPROC       _DISPLAY_WAKETIMES
  -------         PROC          DISPLAY_DS1302
  C:03B7H         LINE#         229
  C:03B7H         LINE#         230
  C:03B7H         LINE#         231
  C:03C6H         LINE#         232
  C:03CFH         LINE#         233
  C:03DBH         LINE#         234
  C:03DFH         LINE#         235
  C:03EBH         LINE#         236
  C:03F7H         LINE#         237
  C:03FBH         LINE#         238
  C:0407H         LINE#         239
  C:0413H         LINE#         241
  -------         ENDPROC       DISPLAY_DS1302
  -------         PROC          _PCF8591_DAC
  X:0069H         SYMBOL        dac
  C:041EH         LINE#         244
  C:0422H         LINE#         245
  C:0422H         LINE#         246
  C:0425H         LINE#         247
  C:0437H         LINE#         248
  C:044DH         LINE#         249
  C:0461H         LINE#         251
  C:046CH         LINE#         252
  C:047AH         LINE#         253
  C:0483H         LINE#         254
  -------         ENDPROC       _PCF8591_DAC
  -------         PROC          _PCF8591_ADC
  X:0069H         SYMBOL        channel
  -------         DO            
  X:006AH         SYMBOL        i
  -------         ENDDO         
  C:02D1H         LINE#         256
  C:02D5H         LINE#         257
  C:02D5H         LINE#         259
  C:02D8H         LINE#         260
  C:02D8H         LINE#         261
  C:02EAH         LINE#         262
  C:0300H         LINE#         263
  C:0314H         LINE#         264
  C:031FH         LINE#         265
  C:032AH         LINE#         266
  C:0333H         LINE#         267
  C:0341H         LINE#         268
  C:034AH         LINE#         270
  -------         ENDPROC       _PCF8591_ADC
  -------         PROC          KEYBOART_CHECK
  C:05CFH         LINE#         271
  C:05CFH         LINE#         272
  C:05CFH         LINE#         273
BL51 BANKED LINKER/LOCATER V6.22.4.0                                                  01/21/2025  15:14:53  PAGE 10


  C:05D2H         LINE#         274
  C:05D2H         LINE#         275
  C:05D8H         LINE#         276
  C:05D8H         LINE#         277
  C:05DAH         LINE#         278
  C:05DCH         LINE#         280
  C:05DCH         LINE#         281
  C:05E1H         LINE#         282
  C:05E1H         LINE#         284
  C:05E2H         LINE#         285
  C:05E5H         LINE#         286
  C:05E5H         LINE#         287
  C:05EBH         LINE#         288
  C:05EBH         LINE#         289
  C:05EDH         LINE#         290
  C:05EFH         LINE#         292
  C:05EFH         LINE#         293
  C:05F4H         LINE#         294
  C:05F4H         LINE#         296
  C:05F5H         LINE#         298
  C:05F8H         LINE#         299
  C:05F8H         LINE#         300
  C:05FEH         LINE#         301
  C:05FEH         LINE#         302
  C:0600H         LINE#         303
  C:0602H         LINE#         305
  C:0602H         LINE#         306
  C:0607H         LINE#         307
  C:0607H         LINE#         309
  C:0608H         LINE#         310
  C:060BH         LINE#         311
  C:060BH         LINE#         312
  C:0611H         LINE#         313
  C:0611H         LINE#         314
  C:0613H         LINE#         315
  C:0615H         LINE#         317
  C:0615H         LINE#         318
  C:061AH         LINE#         319
  C:061AH         LINE#         320
  C:061AH         LINE#         321
  -------         ENDPROC       KEYBOART_CHECK
  -------         PROC          _TASK
  X:0068H         SYMBOL        i
  C:07C7H         LINE#         323
  C:07CBH         LINE#         324
  C:07CBH         LINE#         325
  C:07DDH         LINE#         326
  C:07DDH         LINE#         327
  C:07DDH         LINE#         328
  C:07E4H         LINE#         329
  C:07E4H         LINE#         330
  C:07E4H         LINE#         331
  C:07E7H         LINE#         332
  C:07E7H         LINE#         333
  C:07E7H         LINE#         334
  C:07EEH         LINE#         335
  C:07EEH         LINE#         336
BL51 BANKED LINKER/LOCATER V6.22.4.0                                                  01/21/2025  15:14:53  PAGE 11


  C:07EEH         LINE#         337
  C:07F5H         LINE#         338
  C:07F5H         LINE#         339
  C:07FAH         LINE#         340
  C:07FAH         LINE#         341
  C:07FAH         LINE#         343
  -------         ENDPROC       _TASK
  -------         ENDMOD        MAIN

  -------         MODULE        DS18B20
  C:0000H         SYMBOL        _ICE_DUMMY_
  D:0080H         PUBLIC        P0
  D:0090H         PUBLIC        P1
  D:00A0H         PUBLIC        P2
  D:00B0H         PUBLIC        P3
  D:00C0H         PUBLIC        P4
  C:0A20H         PUBLIC        Read_DS18B20
  D:00C8H         PUBLIC        P5
  D:00A8H         PUBLIC        IE
  C:09E6H         PUBLIC        _Write_DS18B20
  B:00A0H.7       PUBLIC        DQ
  D:00B8H         PUBLIC        IP
  D:00D8H         PUBLIC        CCON
  C:06E6H         PUBLIC        _ReadRomCode
  C:0A3FH         PUBLIC        _OneWireDelay
  D:0098H         PUBLIC        SCON
  D:0088H         PUBLIC        TCON
  C:06A6H         PUBLIC        GetTemperature
  C:090DH         PUBLIC        InitDS18B20
  X:004FH         SYMBOL        rom
  D:00D0H         PUBLIC        PSW
  C:0A3BH         SYMBOL        L?0024
  -------         PROC          L?0023
  -------         ENDPROC       L?0023
  C:0A3BH         SYMBOL        L?0024
  -------         PROC          _ONEWIREDELAY
  D:0006H         SYMBOL        t
  -------         DO            
  D:0005H         SYMBOL        i
  -------         ENDDO         
  C:0A3FH         LINE#         6
  C:0A3FH         LINE#         7
  C:0A3FH         LINE#         9
  C:0A49H         LINE#         10
  C:0A54H         LINE#         11
  C:0A54H         LINE#         12
  -------         ENDPROC       _ONEWIREDELAY
  -------         PROC          _WRITE_DS18B20
  D:0001H         SYMBOL        dat
  -------         DO            
  D:0003H         SYMBOL        i
  -------         ENDDO         
  C:09E6H         LINE#         15
  C:09E8H         LINE#         16
  C:09E8H         LINE#         18
  C:09EAH         LINE#         19
  C:09EAH         LINE#         20
BL51 BANKED LINKER/LOCATER V6.22.4.0                                                  01/21/2025  15:14:53  PAGE 12


  C:09ECH         LINE#         21
  C:09F0H         LINE#         22
  C:09F3H         LINE#         23
  C:09F5H         LINE#         24
  C:09F9H         LINE#         25
  C:09FEH         LINE#         26
  -------         ENDPROC       _WRITE_DS18B20
  -------         PROC          READ_DS18B20
  -------         DO            
  D:0003H         SYMBOL        i
  D:0004H         SYMBOL        dat
  -------         ENDDO         
  C:0A20H         LINE#         30
  C:0A20H         LINE#         31
  C:0A20H         LINE#         35
  C:0A22H         LINE#         36
  C:0A22H         LINE#         37
  C:0A24H         LINE#         38
  C:0A28H         LINE#         39
  C:0A2AH         LINE#         40
  C:0A2DH         LINE#         41
  C:0A2DH         LINE#         42
  C:0A30H         LINE#         43
  C:0A30H         LINE#         44
  C:0A33H         LINE#         45
  C:0A38H         LINE#         46
  C:0A3AH         LINE#         47
  -------         ENDPROC       READ_DS18B20
  -------         PROC          INITDS18B20
  -------         DO            
  B:0020H.0       SYMBOL        initflag
  -------         ENDDO         
  C:090DH         LINE#         50
  C:090DH         LINE#         51
  C:090DH         LINE#         52
  C:090FH         LINE#         54
  C:0911H         LINE#         55
  C:0918H         LINE#         56
  C:091AH         LINE#         57
  C:0921H         LINE#         58
  C:0923H         LINE#         59
  C:092AH         LINE#         60
  C:092EH         LINE#         61
  C:0931H         LINE#         63
  C:0933H         LINE#         64
  -------         ENDPROC       INITDS18B20
  -------         PROC          _READROMCODE
  X:0068H         SYMBOL        rom_code_bufff
  -------         DO            
  X:006BH         SYMBOL        index
  -------         ENDDO         
  C:06E6H         LINE#         67
  C:06F0H         LINE#         68
  C:06F0H         LINE#         69
  C:06F3H         LINE#         71
  C:06F6H         LINE#         72
  C:06FBH         LINE#         74
BL51 BANKED LINKER/LOCATER V6.22.4.0                                                  01/21/2025  15:14:53  PAGE 13


  C:06FDH         LINE#         75
  C:0715H         LINE#         76
  C:0720H         LINE#         77
  -------         ENDPROC       _READROMCODE
  -------         PROC          GETTEMPERATURE
  -------         DO            
  D:0006H         SYMBOL        temp
  D:0004H         SYMBOL        temperature
  D:0001H         SYMBOL        low
  D:0007H         SYMBOL        high
  -------         ENDDO         
  C:06A6H         LINE#         80
  C:06A6H         LINE#         81
  C:06A6H         LINE#         85
  C:06A9H         LINE#         86
  C:06AEH         LINE#         87
  C:06B3H         LINE#         92
  C:06BAH         LINE#         93
  C:06BDH         LINE#         94
  C:06C2H         LINE#         95
  C:06C7H         LINE#         97
  C:06CCH         LINE#         98
  C:06CFH         LINE#         100
  C:06D2H         LINE#         101
  C:06D3H         LINE#         102
  C:06D5H         LINE#         103
  -------         ENDPROC       GETTEMPERATURE
  -------         ENDMOD        DS18B20

  -------         MODULE        IIC
  C:0000H         SYMBOL        _ICE_DUMMY_
  D:0080H         PUBLIC        P0
  D:0090H         PUBLIC        P1
  D:00A0H         PUBLIC        P2
  D:00B0H         PUBLIC        P3
  D:00C0H         PUBLIC        P4
  D:00C8H         PUBLIC        P5
  D:00A8H         PUBLIC        IE
  C:0AFEH         PUBLIC        delay_5us
  D:00B8H         PUBLIC        IP
  C:0A6FH         PUBLIC        Master_ACK
  D:00D8H         PUBLIC        CCON
  C:0AD7H         PUBLIC        I2C_Start
  D:0098H         PUBLIC        SCON
  D:0088H         PUBLIC        TCON
  B:00A0H.2       PUBLIC        sda
  B:00A0H.1       PUBLIC        scl
  C:0AE4H         PUBLIC        I2C_Stop
  C:0A5AH         PUBLIC        Test_ACK
  C:08BAH         PUBLIC        I2C_read_byte
  C:0B06H         PUBLIC        I2C_init
  C:095AH         PUBLIC        _I2C_send_byte
  C:07FBH         PUBLIC        _I2C_ReceiveData
  C:0934H         PUBLIC        _I2C_TransmitData
  D:00D0H         PUBLIC        PSW
  -------         PROC          DELAY_5US
  -------         DO            
BL51 BANKED LINKER/LOCATER V6.22.4.0                                                  01/21/2025  15:14:53  PAGE 14


  D:000AH         SYMBOL        i
  -------         ENDDO         
  C:0AFEH         LINE#         3
  C:0AFEH         LINE#         4
  C:0AFEH         LINE#         7
  C:0AFFH         LINE#         8
  C:0B02H         LINE#         9
  C:0B05H         LINE#         10
  -------         ENDPROC       DELAY_5US
  -------         PROC          I2C_INIT
  C:0B06H         LINE#         13
  C:0B06H         LINE#         14
  C:0B06H         LINE#         15
  C:0B08H         LINE#         16
  C:0B09H         LINE#         17
  C:0B0BH         LINE#         18
  C:0B0CH         LINE#         19
  -------         ENDPROC       I2C_INIT
  -------         PROC          I2C_START
  C:0AD7H         LINE#         22
  C:0AD7H         LINE#         23
  C:0AD7H         LINE#         24
  C:0AD9H         LINE#         25
  C:0ADAH         LINE#         26
  C:0ADCH         LINE#         27
  C:0ADFH         LINE#         28
  C:0AE1H         LINE#         29
  -------         ENDPROC       I2C_START
  -------         PROC          I2C_STOP
  C:0AE4H         LINE#         33
  C:0AE4H         LINE#         34
  C:0AE4H         LINE#         35
  C:0AE6H         LINE#         36
  C:0AE7H         LINE#         37
  C:0AE9H         LINE#         38
  C:0AECH         LINE#         39
  C:0AEEH         LINE#         40
  -------         ENDPROC       I2C_STOP
  -------         PROC          MASTER_ACK
  B:0020H.0       SYMBOL        i
  C:0A6FH         LINE#         44
  C:0A6FH         LINE#         45
  C:0A6FH         LINE#         46
  C:0A71H         LINE#         47
  C:0A72H         LINE#         48
  C:0A75H         LINE#         49
  C:0A75H         LINE#         50
  C:0A77H         LINE#         51
  C:0A79H         LINE#         53
  C:0A79H         LINE#         54
  C:0A7BH         LINE#         55
  C:0A7BH         LINE#         56
  C:0A7CH         LINE#         57
  C:0A7EH         LINE#         58
  C:0A81H         LINE#         59
  C:0A83H         LINE#         60
  C:0A84H         LINE#         61
BL51 BANKED LINKER/LOCATER V6.22.4.0                                                  01/21/2025  15:14:53  PAGE 15


  C:0A86H         LINE#         62
  C:0A87H         LINE#         63
  -------         ENDPROC       MASTER_ACK
  -------         PROC          L?0033
  -------         ENDPROC       L?0033
  -------         PROC          TEST_ACK
  C:0A5AH         LINE#         66
  C:0A5AH         LINE#         67
  C:0A5AH         LINE#         68
  C:0A5CH         LINE#         69
  C:0A5FH         LINE#         70
  C:0A62H         LINE#         71
  C:0A62H         LINE#         72
  C:0A64H         LINE#         73
  C:0A65H         LINE#         74
  C:0A68H         LINE#         75
  C:0A6AH         LINE#         76
  C:0A6AH         LINE#         78
  C:0A6AH         LINE#         79
  C:0A6CH         LINE#         80
  C:0A6DH         LINE#         81
  C:0A6EH         LINE#         82
  C:0A6EH         LINE#         83
  -------         ENDPROC       TEST_ACK
  -------         PROC          _I2C_SEND_BYTE
  D:0007H         SYMBOL        byte
  -------         DO            
  D:0006H         SYMBOL        i
  -------         ENDDO         
  C:095AH         LINE#         86
  C:095AH         LINE#         87
  C:095AH         LINE#         89
  C:095CH         LINE#         90
  C:095CH         LINE#         91
  C:095EH         LINE#         92
  C:095FH         LINE#         93
  C:0963H         LINE#         94
  C:0963H         LINE#         95
  C:0965H         LINE#         96
  C:0966H         LINE#         97
  C:0968H         LINE#         99
  C:0968H         LINE#         100
  C:096AH         LINE#         101
  C:096BH         LINE#         102
  C:096BH         LINE#         103
  C:096DH         LINE#         104
  C:096EH         LINE#         105
  C:0972H         LINE#         106
  C:0977H         LINE#         107
  C:0979H         LINE#         108
  C:097AH         LINE#         109
  C:097CH         LINE#         110
  C:097DH         LINE#         111
  -------         ENDPROC       _I2C_SEND_BYTE
  -------         PROC          I2C_READ_BYTE
  -------         DO            
  D:0007H         SYMBOL        dat
BL51 BANKED LINKER/LOCATER V6.22.4.0                                                  01/21/2025  15:14:53  PAGE 16


  D:0006H         SYMBOL        i
  -------         ENDDO         
  C:08BAH         LINE#         115
  C:08BAH         LINE#         116
  C:08BAH         LINE#         118
  C:08BCH         LINE#         119
  C:08BDH         LINE#         120
  C:08BFH         LINE#         121
  C:08C0H         LINE#         122
  C:08C2H         LINE#         123
  C:08C2H         LINE#         124
  C:08C4H         LINE#         125
  C:08C5H         LINE#         126
  C:08C9H         LINE#         127
  C:08C9H         LINE#         128
  C:08CCH         LINE#         129
  C:08CEH         LINE#         131
  C:08CEH         LINE#         132
  C:08D1H         LINE#         133
  C:08D1H         LINE#         134
  C:08D2H         LINE#         135
  C:08D4H         LINE#         136
  C:08D5H         LINE#         137
  C:08DBH         LINE#         138
  C:08DBH         LINE#         139
  C:08DFH         LINE#         140
  C:08DFH         LINE#         141
  C:08E4H         LINE#         142
  C:08E4H         LINE#         143
  -------         ENDPROC       I2C_READ_BYTE
  -------         PROC          _I2C_TRANSMITDATA
  D:0003H         SYMBOL        ADDR
  D:0004H         SYMBOL        DAT
  C:0934H         LINE#         146
  C:0936H         LINE#         147
  C:0936H         LINE#         148
  C:0939H         LINE#         149
  C:0939H         LINE#         150
  C:093EH         LINE#         151
  C:093EH         LINE#         152
  C:093FH         LINE#         153
  C:093FH         LINE#         154
  C:0944H         LINE#         155
  C:0949H         LINE#         156
  C:0949H         LINE#         157
  C:094AH         LINE#         158
  C:094AH         LINE#         159
  C:094FH         LINE#         160
  C:0954H         LINE#         161
  C:0954H         LINE#         162
  C:0955H         LINE#         163
  C:0955H         LINE#         164
  C:0958H         LINE#         165
  C:0959H         LINE#         166
  -------         ENDPROC       _I2C_TRANSMITDATA
  -------         PROC          _I2C_RECEIVEDATA
  D:0005H         SYMBOL        ADDR
BL51 BANKED LINKER/LOCATER V6.22.4.0                                                  01/21/2025  15:14:53  PAGE 17


  -------         DO            
  D:0007H         SYMBOL        DAT
  -------         ENDDO         
  C:07FBH         LINE#         169
  C:07FDH         LINE#         170
  C:07FDH         LINE#         172
  C:0800H         LINE#         173
  C:0800H         LINE#         174
  C:0805H         LINE#         175
  C:0805H         LINE#         176
  C:0808H         LINE#         177
  C:0808H         LINE#         178
  C:080DH         LINE#         179
  C:0812H         LINE#         180
  C:0815H         LINE#         181
  C:081AH         LINE#         182
  C:081FH         LINE#         183
  C:081FH         LINE#         184
  C:0822H         LINE#         185
  C:0822H         LINE#         186
  C:0825H         LINE#         187
  C:082AH         LINE#         188
  C:082DH         LINE#         189
  C:082DH         LINE#         190
  -------         ENDPROC       _I2C_RECEIVEDATA
  -------         ENDMOD        IIC

  -------         MODULE        AT24C02
  C:0000H         SYMBOL        _ICE_DUMMY_
  D:0080H         PUBLIC        P0
  D:0090H         PUBLIC        P1
  D:00A0H         PUBLIC        P2
  D:00B0H         PUBLIC        P3
  D:00C0H         PUBLIC        P4
  D:00C8H         PUBLIC        P5
  D:00A8H         PUBLIC        IE
  D:00B8H         PUBLIC        IP
  C:0662H         PUBLIC        _read_AT24C02
  D:00D8H         PUBLIC        CCON
  C:082EH         PUBLIC        _write_AT24C02
  D:0098H         PUBLIC        SCON
  D:0088H         PUBLIC        TCON
  D:00D0H         PUBLIC        PSW
  -------         PROC          _WRITE_AT24C02
  X:0069H         SYMBOL        addr
  X:006AH         SYMBOL        dat
  C:082EH         LINE#         3
  C:0835H         LINE#         4
  C:0835H         LINE#         6
  C:0838H         LINE#         9
  C:083DH         LINE#         10
  C:0842H         LINE#         11
  C:0842H         LINE#         13
  C:0844H         LINE#         15
  C:0844H         LINE#         18
  C:084BH         LINE#         19
  C:0850H         LINE#         20
BL51 BANKED LINKER/LOCATER V6.22.4.0                                                  01/21/2025  15:14:53  PAGE 18


  C:0850H         LINE#         22
  C:0852H         LINE#         24
  C:0852H         LINE#         27
  C:0859H         LINE#         28
  C:085CH         LINE#         29
  C:085CH         LINE#         31
  C:085CH         LINE#         33
  C:085CH         LINE#         36
  C:085FH         LINE#         38
  -------         ENDPROC       _WRITE_AT24C02
  -------         PROC          _READ_AT24C02
  X:0069H         SYMBOL        addr
  -------         DO            
  X:006AH         SYMBOL        dat
  -------         ENDDO         
  C:0662H         LINE#         39
  C:0666H         LINE#         40
  C:0666H         LINE#         42
  C:0669H         LINE#         43
  C:066EH         LINE#         44
  C:0673H         LINE#         45
  C:0673H         LINE#         46
  C:0676H         LINE#         47
  C:0676H         LINE#         48
  C:067DH         LINE#         49
  C:0682H         LINE#         50
  C:0685H         LINE#         51
  C:068AH         LINE#         52
  C:068FH         LINE#         53
  C:068FH         LINE#         54
  C:0692H         LINE#         55
  C:0692H         LINE#         56
  C:0699H         LINE#         57
  C:069EH         LINE#         58
  C:06A1H         LINE#         59
  C:06A5H         LINE#         60
  -------         ENDPROC       _READ_AT24C02
  -------         ENDMOD        AT24C02

  -------         MODULE        ?C_STARTUP
  C:0245H         SEGMENT       ?C_C51STARTUP
  I:0021H         SEGMENT       ?STACK
  C:0000H         PUBLIC        ?C_STARTUP
  D:00E0H         SYMBOL        ACC
  D:00F0H         SYMBOL        B
  D:0083H         SYMBOL        DPH
  D:0082H         SYMBOL        DPL
  N:0000H         SYMBOL        IBPSTACK
  N:0100H         SYMBOL        IBPSTACKTOP
  N:0080H         SYMBOL        IDATALEN
  C:0248H         SYMBOL        IDATALOOP
  N:0000H         SYMBOL        PBPSTACK
  N:0100H         SYMBOL        PBPSTACKTOP
  N:0000H         SYMBOL        PDATALEN
  N:0000H         SYMBOL        PDATASTART
  N:0000H         SYMBOL        PPAGE
  N:0000H         SYMBOL        PPAGEENABLE
BL51 BANKED LINKER/LOCATER V6.22.4.0                                                  01/21/2025  15:14:53  PAGE 19


  D:00A0H         SYMBOL        PPAGE_SFR
  D:0081H         SYMBOL        SP
  C:0245H         SYMBOL        STARTUP1
  N:0000H         SYMBOL        XBPSTACK
  N:0000H         SYMBOL        XBPSTACKTOP
  N:0000H         SYMBOL        XDATALEN
  N:0000H         SYMBOL        XDATASTART
  C:0000H         LINE#         126
  C:0245H         LINE#         133
  C:0247H         LINE#         134
  C:0248H         LINE#         135
  C:0249H         LINE#         136
  C:024BH         LINE#         185
  C:024EH         LINE#         196
  -------         ENDMOD        ?C_STARTUP

  -------         MODULE        DS1302
  C:0000H         SYMBOL        _ICE_DUMMY_
  D:0080H         PUBLIC        P0
  D:0090H         PUBLIC        P1
  D:00A0H         PUBLIC        P2
  D:00B0H         PUBLIC        P3
  D:00C0H         PUBLIC        P4
  D:00C8H         PUBLIC        P5
  C:08E5H         PUBLIC        InitRTCStruct
  D:00A8H         PUBLIC        IE
  C:0B0DH         PUBLIC        GetRTCStruct
  C:09A2H         PUBLIC        SetRTC
  D:00B8H         PUBLIC        IP
  D:00D8H         PUBLIC        CCON
  X:0057H         PUBLIC        devRTC
  D:0098H         PUBLIC        SCON
  D:0088H         PUBLIC        TCON
  B:00A0H.4       PUBLIC        SDA
  C:075BH         PUBLIC        _Read_Ds1302
  B:00A0H.5       PUBLIC        SCK
  C:0AB5H         PUBLIC        _Write_Ds1302_Byte
  C:0580H         PUBLIC        ReadRTC
  C:0AD0H         PUBLIC        r_rtc_address
  C:09D2H         PUBLIC        _Write_Ds1302
  C:0AC9H         PUBLIC        w_rtc_address
  B:00A0H.6       PUBLIC        RST
  D:00D0H         PUBLIC        PSW
  -------         PROC          GETRTCSTRUCT
  C:0B0DH         LINE#         10
  C:0B0DH         LINE#         11
  C:0B0DH         LINE#         12
  C:0B13H         LINE#         13
  -------         ENDPROC       GETRTCSTRUCT
  -------         PROC          _WRITE_DS1302_BYTE
  D:0007H         SYMBOL        temp
  -------         DO            
  D:0006H         SYMBOL        i
  -------         ENDDO         
  C:0AB5H         LINE#         18
  C:0AB5H         LINE#         19
  C:0AB5H         LINE#         21
BL51 BANKED LINKER/LOCATER V6.22.4.0                                                  01/21/2025  15:14:53  PAGE 20


  C:0AB7H         LINE#         22
  C:0AB7H         LINE#         23
  C:0AB9H         LINE#         24
  C:0ABDH         LINE#         25
  C:0AC1H         LINE#         26
  C:0AC3H         LINE#         27
  C:0AC8H         LINE#         28
  -------         ENDPROC       _WRITE_DS1302_BYTE
  C:09C9H         SYMBOL        L?0019
  -------         PROC          L?0018
  -------         ENDPROC       L?0018
  C:09C9H         SYMBOL        L?0019
  -------         PROC          _WRITE_DS1302
  D:0007H         SYMBOL        address
  D:0005H         SYMBOL        dat
  C:09D2H         LINE#         30
  C:09D2H         LINE#         31
  C:09D2H         LINE#         32
  C:09D4H         LINE#         33
  C:09D5H         LINE#         34
  C:09D7H         LINE#         35
  C:09D8H         LINE#         36
  C:09DAH         LINE#         37
  C:09DBH         LINE#         38
  C:09DEH         LINE#         39
  C:09E3H         LINE#         40
  C:09E5H         LINE#         41
  -------         ENDPROC       _WRITE_DS1302
  -------         PROC          _READ_DS1302
  D:0007H         SYMBOL        address
  -------         DO            
  D:0007H         SYMBOL        i
  D:0005H         SYMBOL        temp
  -------         ENDDO         
  C:075BH         LINE#         43
  C:075BH         LINE#         44
  C:075BH         LINE#         45
  C:075DH         LINE#         46
  C:075FH         LINE#         47
  C:0760H         LINE#         48
  C:0762H         LINE#         49
  C:0763H         LINE#         50
  C:0765H         LINE#         51
  C:0766H         LINE#         52
  C:0769H         LINE#         53
  C:076BH         LINE#         54
  C:076BH         LINE#         55
  C:076DH         LINE#         56
  C:0771H         LINE#         57
  C:0774H         LINE#         58
  C:0777H         LINE#         59
  C:0779H         LINE#         60
  C:077EH         LINE#         61
  C:0780H         LINE#         62
  C:0781H         LINE#         63
  C:0783H         LINE#         64
  C:0785H         LINE#         65
BL51 BANKED LINKER/LOCATER V6.22.4.0                                                  01/21/2025  15:14:53  PAGE 21


  C:0786H         LINE#         66
  C:0788H         LINE#         67
  C:0789H         LINE#         68
  C:078BH         LINE#         69
  C:078CH         LINE#         70
  C:078EH         LINE#         71
  C:078FH         LINE#         72
  C:0791H         LINE#         73
  -------         ENDPROC       _READ_DS1302
  -------         PROC          READRTC
  -------         DO            
  D:0004H         SYMBOL        i
  D:0001H         SYMBOL        p
  X:0068H         SYMBOL        tmp
  -------         ENDDO         
  C:0580H         LINE#         77
  C:0580H         LINE#         78
  C:0580H         LINE#         82
  C:0586H         LINE#         84
  C:0588H         LINE#         85
  C:0595H         LINE#         86
  C:059CH         LINE#         87
  C:05A1H         LINE#         89
  C:05ABH         LINE#         90
  C:05B0H         LINE#         92
  C:05BAH         LINE#         93
  C:05BFH         LINE#         95
  C:05C9H         LINE#         96
  C:05CEH         LINE#         97
  -------         ENDPROC       READRTC
  -------         PROC          SETRTC
  C:09A2H         LINE#         101
  C:09A2H         LINE#         102
  C:09A2H         LINE#         103
  C:09A9H         LINE#         105
  C:09B4H         LINE#         106
  C:09B9H         LINE#         107
  C:09BEH         LINE#         109
  -------         ENDPROC       SETRTC
  -------         PROC          INITRTCSTRUCT
  C:08E5H         LINE#         113
  C:08E5H         LINE#         114
  C:08E5H         LINE#         115
  C:08EAH         LINE#         116
  C:08EDH         LINE#         117
  C:08F1H         LINE#         118
  C:08F5H         LINE#         119
  C:08F9H         LINE#         120
  C:08FCH         LINE#         122
  C:0904H         LINE#         123
  C:090CH         LINE#         125
  -------         ENDPROC       INITRTCSTRUCT
  -------         ENDMOD        DS1302

  -------         MODULE        PCF8591
  C:0000H         SYMBOL        _ICE_DUMMY_
  D:0080H         PUBLIC        P0
BL51 BANKED LINKER/LOCATER V6.22.4.0                                                  01/21/2025  15:14:53  PAGE 22


  D:0090H         PUBLIC        P1
  D:00A0H         PUBLIC        P2
  D:00B0H         PUBLIC        P3
  D:00C0H         PUBLIC        P4
  D:00C8H         PUBLIC        P5
  D:00A8H         PUBLIC        IE
  D:00B8H         PUBLIC        IP
  D:00D8H         PUBLIC        CCON
  D:0098H         PUBLIC        SCON
  C:0AF1H         PUBLIC        Delay10ms
  D:0088H         PUBLIC        TCON
  C:0A9FH         PUBLIC        InitPCF8591
  C:0721H         PUBLIC        _GetADC
  C:097EH         PUBLIC        _SetDAC
  D:00D0H         PUBLIC        PSW
  -------         PROC          DELAY10MS
  -------         DO            
  D:0008H         SYMBOL        i
  D:0009H         SYMBOL        j
  -------         ENDDO         
  C:0AF1H         LINE#         3
  C:0AF1H         LINE#         4
  C:0AF1H         LINE#         7
  C:0AF4H         LINE#         8
  C:0AF7H         LINE#         10
  C:0AF7H         LINE#         11
  C:0AFAH         LINE#         12
  C:0AFDH         LINE#         13
  -------         ENDPROC       DELAY10MS
  -------         PROC          INITPCF8591
  C:0A9FH         LINE#         15
  C:0A9FH         LINE#         16
  C:0A9FH         LINE#         17
  C:0AA2H         LINE#         18
  C:0AA7H         LINE#         19
  C:0AAAH         LINE#         20
  C:0AAFH         LINE#         21
  C:0AB2H         LINE#         22
  -------         ENDPROC       INITPCF8591
  -------         PROC          _GETADC
  X:006BH         SYMBOL        channel
  -------         DO            
  X:006CH         SYMBOL        temp
  -------         ENDDO         
  C:0721H         LINE#         26
  C:0725H         LINE#         27
  C:0725H         LINE#         29
  C:0728H         LINE#         30
  C:072DH         LINE#         31
  C:0730H         LINE#         32
  C:0739H         LINE#         33
  C:073CH         LINE#         36
  C:073FH         LINE#         37
  C:0744H         LINE#         38
  C:0747H         LINE#         39
  C:074EH         LINE#         40
  C:0753H         LINE#         41
BL51 BANKED LINKER/LOCATER V6.22.4.0                                                  01/21/2025  15:14:53  PAGE 23


  C:0756H         LINE#         43
  C:075AH         LINE#         44
  -------         ENDPROC       _GETADC
  -------         PROC          _SETDAC
  X:006AH         SYMBOL        dat
  C:097EH         LINE#         47
  C:0982H         LINE#         48
  C:0982H         LINE#         49
  C:0985H         LINE#         50
  C:098AH         LINE#         51
  C:098DH         LINE#         52
  C:0992H         LINE#         53
  C:0995H         LINE#         55
  C:099CH         LINE#         56
  C:099FH         LINE#         57
  -------         ENDPROC       _SETDAC
  -------         ENDMOD        PCF8591

  -------         MODULE        ?C?FPMUL
  C:0003H         PUBLIC        ?C?FPMUL
  -------         ENDMOD        ?C?FPMUL

  -------         MODULE        ?C?FCAST
  C:0113H         PUBLIC        ?C?FCASTC
  C:010EH         PUBLIC        ?C?FCASTI
  C:0109H         PUBLIC        ?C?FCASTL
  -------         ENDMOD        ?C?FCAST

  -------         MODULE        ?C?CLDPTR
  C:0191H         PUBLIC        ?C?CLDPTR
  -------         ENDMOD        ?C?CLDPTR

  -------         MODULE        ?C?CLDOPTR
  C:01AAH         PUBLIC        ?C?CLDOPTR
  -------         ENDMOD        ?C?CLDOPTR

  -------         MODULE        ?C?CSTOPTR
  C:01D7H         PUBLIC        ?C?CSTOPTR
  -------         ENDMOD        ?C?CSTOPTR

  -------         MODULE        ?C?ILDOPTR
  C:01F9H         PUBLIC        ?C?ILDOPTR
  -------         ENDMOD        ?C?ILDOPTR

  -------         MODULE        ?C?LNEG
  C:0231H         PUBLIC        ?C?LNEG
  -------         ENDMOD        ?C?LNEG

  -------         MODULE        ?C?ICALL
  C:023FH         PUBLIC        ?C?ICALL
  C:0243H         PUBLIC        ?C?ICALL2
  -------         ENDMOD        ?C?ICALL

*** WARNING L16: UNCALLED SEGMENT, IGNORED FOR OVERLAY PROCESS
    SEGMENT: ?PR?GETTEMPERATURE?DS18B20

*** WARNING L16: UNCALLED SEGMENT, IGNORED FOR OVERLAY PROCESS
BL51 BANKED LINKER/LOCATER V6.22.4.0                                                  01/21/2025  15:14:53  PAGE 24


    SEGMENT: ?PR?I2C_INIT?IIC

*** WARNING L16: UNCALLED SEGMENT, IGNORED FOR OVERLAY PROCESS
    SEGMENT: ?PR?_I2C_TRANSMITDATA?IIC

*** WARNING L16: UNCALLED SEGMENT, IGNORED FOR OVERLAY PROCESS
    SEGMENT: ?PR?_I2C_RECEIVEDATA?IIC

*** WARNING L16: UNCALLED SEGMENT, IGNORED FOR OVERLAY PROCESS
    SEGMENT: ?PR?DELAY10MS?PCF8591

Program Size: data=12.1 xdata=112 code=2836
LINK/LOCATE RUN COMPLETE.  5 WARNING(S),  0 ERROR(S)
